; ModuleID = '7/865.c'
source_filename = "7/865.c"
target datalayout = "e-m:e-p270:32:32-p271:32:32-p272:64:64-i64:64-f80:128-n8:16:32:64-S128"
target triple = "x86_64-pc-linux-gnu"

@.str = private unnamed_addr constant [3 x i8] c"%c\00", align 1
@.str.1 = private unnamed_addr constant [3 x i8] c"%s\00", align 1

; Function Attrs: noinline nounwind uwtable
define dso_local i32 @main() #0 {
  %1 = alloca i32, align 4
  %2 = alloca [256 x i8], align 16
  %3 = alloca [256 x i8], align 16
  %4 = alloca [256 x i8], align 16
  %5 = alloca i32, align 4
  %6 = alloca i32, align 4
  %7 = alloca i32, align 4
  %8 = alloca i32, align 4
  %9 = alloca i32, align 4
  %10 = alloca i32, align 4
  %11 = alloca i32, align 4
  %12 = alloca i32, align 4
  store i32 0, i32* %1, align 4
  %13 = bitcast [256 x i8]* %2 to i8*
  call void @llvm.memset.p0i8.i64(i8* align 16 %13, i8 0, i64 256, i1 false)
  %14 = bitcast [256 x i8]* %3 to i8*
  call void @llvm.memset.p0i8.i64(i8* align 16 %14, i8 0, i64 256, i1 false)
  %15 = bitcast [256 x i8]* %4 to i8*
  call void @llvm.memset.p0i8.i64(i8* align 16 %15, i8 0, i64 256, i1 false)
  %16 = getelementptr inbounds [256 x i8], [256 x i8]* %2, i64 0, i64 0
  %17 = call i32 (i8*, ...) bitcast (i32 (...)* @gets to i32 (i8*, ...)*)(i8* %16)
  %18 = getelementptr inbounds [256 x i8], [256 x i8]* %3, i64 0, i64 0
  %19 = call i32 (i8*, ...) bitcast (i32 (...)* @gets to i32 (i8*, ...)*)(i8* %18)
  %20 = getelementptr inbounds [256 x i8], [256 x i8]* %4, i64 0, i64 0
  %21 = call i32 (i8*, ...) bitcast (i32 (...)* @gets to i32 (i8*, ...)*)(i8* %20)
  %22 = getelementptr inbounds [256 x i8], [256 x i8]* %2, i64 0, i64 0
  %23 = call i64 @strlen(i8* %22) #4
  %24 = trunc i64 %23 to i32
  store i32 %24, i32* %8, align 4
  %25 = getelementptr inbounds [256 x i8], [256 x i8]* %3, i64 0, i64 0
  %26 = call i64 @strlen(i8* %25) #4
  %27 = trunc i64 %26 to i32
  store i32 %27, i32* %9, align 4
  %28 = getelementptr inbounds [256 x i8], [256 x i8]* %4, i64 0, i64 0
  %29 = call i64 @strlen(i8* %28) #4
  %30 = trunc i64 %29 to i32
  store i32 %30, i32* %10, align 4
  store i32 0, i32* %12, align 4
  store i32 0, i32* %5, align 4
  br label %31

31:                                               ; preds = %134, %0
  %32 = load i32, i32* %5, align 4
  %33 = load i32, i32* %8, align 4
  %34 = load i32, i32* %9, align 4
  %35 = sub nsw i32 %33, %34
  %36 = add nsw i32 %35, 1
  %37 = icmp slt i32 %32, %36
  br i1 %37, label %38, label %137

38:                                               ; preds = %31
  store i32 0, i32* %11, align 4
  %39 = load i32, i32* %5, align 4
  %40 = sext i32 %39 to i64
  %41 = getelementptr inbounds [256 x i8], [256 x i8]* %2, i64 0, i64 %40
  %42 = load i8, i8* %41, align 1
  %43 = sext i8 %42 to i32
  %44 = getelementptr inbounds [256 x i8], [256 x i8]* %3, i64 0, i64 0
  %45 = load i8, i8* %44, align 16
  %46 = sext i8 %45 to i32
  %47 = icmp eq i32 %43, %46
  br i1 %47, label %48, label %133

48:                                               ; preds = %38
  store i32 0, i32* %6, align 4
  br label %49

49:                                               ; preds = %71, %48
  %50 = load i32, i32* %6, align 4
  %51 = load i32, i32* %9, align 4
  %52 = icmp slt i32 %50, %51
  br i1 %52, label %53, label %74

53:                                               ; preds = %49
  %54 = load i32, i32* %5, align 4
  %55 = load i32, i32* %6, align 4
  %56 = add nsw i32 %54, %55
  %57 = sext i32 %56 to i64
  %58 = getelementptr inbounds [256 x i8], [256 x i8]* %2, i64 0, i64 %57
  %59 = load i8, i8* %58, align 1
  %60 = sext i8 %59 to i32
  %61 = load i32, i32* %6, align 4
  %62 = sext i32 %61 to i64
  %63 = getelementptr inbounds [256 x i8], [256 x i8]* %3, i64 0, i64 %62
  %64 = load i8, i8* %63, align 1
  %65 = sext i8 %64 to i32
  %66 = icmp eq i32 %60, %65
  br i1 %66, label %67, label %70

67:                                               ; preds = %53
  %68 = load i32, i32* %11, align 4
  %69 = add nsw i32 %68, 1
  store i32 %69, i32* %11, align 4
  br label %70

70:                                               ; preds = %67, %53
  br label %71

71:                                               ; preds = %70
  %72 = load i32, i32* %6, align 4
  %73 = add nsw i32 %72, 1
  store i32 %73, i32* %6, align 4
  br label %49

74:                                               ; preds = %49
  %75 = load i32, i32* %11, align 4
  %76 = load i32, i32* %9, align 4
  %77 = icmp eq i32 %75, %76
  br i1 %77, label %78, label %132

78:                                               ; preds = %74
  store i32 0, i32* %7, align 4
  br label %79

79:                                               ; preds = %90, %78
  %80 = load i32, i32* %7, align 4
  %81 = load i32, i32* %5, align 4
  %82 = icmp slt i32 %80, %81
  br i1 %82, label %83, label %93

83:                                               ; preds = %79
  %84 = load i32, i32* %7, align 4
  %85 = sext i32 %84 to i64
  %86 = getelementptr inbounds [256 x i8], [256 x i8]* %2, i64 0, i64 %85
  %87 = load i8, i8* %86, align 1
  %88 = sext i8 %87 to i32
  %89 = call i32 (i8*, ...) @printf(i8* getelementptr inbounds ([3 x i8], [3 x i8]* @.str, i64 0, i64 0), i32 %88)
  br label %90

90:                                               ; preds = %83
  %91 = load i32, i32* %7, align 4
  %92 = add nsw i32 %91, 1
  store i32 %92, i32* %7, align 4
  br label %79

93:                                               ; preds = %79
  %94 = load i32, i32* %5, align 4
  store i32 %94, i32* %7, align 4
  br label %95

95:                                               ; preds = %110, %93
  %96 = load i32, i32* %7, align 4
  %97 = load i32, i32* %10, align 4
  %98 = load i32, i32* %5, align 4
  %99 = add nsw i32 %97, %98
  %100 = icmp slt i32 %96, %99
  br i1 %100, label %101, label %113

101:                                              ; preds = %95
  %102 = load i32, i32* %7, align 4
  %103 = load i32, i32* %5, align 4
  %104 = sub nsw i32 %102, %103
  %105 = sext i32 %104 to i64
  %106 = getelementptr inbounds [256 x i8], [256 x i8]* %4, i64 0, i64 %105
  %107 = load i8, i8* %106, align 1
  %108 = sext i8 %107 to i32
  %109 = call i32 (i8*, ...) @printf(i8* getelementptr inbounds ([3 x i8], [3 x i8]* @.str, i64 0, i64 0), i32 %108)
  br label %110

110:                                              ; preds = %101
  %111 = load i32, i32* %7, align 4
  %112 = add nsw i32 %111, 1
  store i32 %112, i32* %7, align 4
  br label %95

113:                                              ; preds = %95
  %114 = load i32, i32* %5, align 4
  %115 = load i32, i32* %9, align 4
  %116 = add nsw i32 %114, %115
  store i32 %116, i32* %7, align 4
  br label %117

117:                                              ; preds = %128, %113
  %118 = load i32, i32* %7, align 4
  %119 = load i32, i32* %8, align 4
  %120 = icmp slt i32 %118, %119
  br i1 %120, label %121, label %131

121:                                              ; preds = %117
  %122 = load i32, i32* %7, align 4
  %123 = sext i32 %122 to i64
  %124 = getelementptr inbounds [256 x i8], [256 x i8]* %2, i64 0, i64 %123
  %125 = load i8, i8* %124, align 1
  %126 = sext i8 %125 to i32
  %127 = call i32 (i8*, ...) @printf(i8* getelementptr inbounds ([3 x i8], [3 x i8]* @.str, i64 0, i64 0), i32 %126)
  br label %128

128:                                              ; preds = %121
  %129 = load i32, i32* %7, align 4
  %130 = add nsw i32 %129, 1
  store i32 %130, i32* %7, align 4
  br label %117

131:                                              ; preds = %117
  store i32 1, i32* %12, align 4
  br label %137

132:                                              ; preds = %74
  br label %133

133:                                              ; preds = %132, %38
  br label %134

134:                                              ; preds = %133
  %135 = load i32, i32* %5, align 4
  %136 = add nsw i32 %135, 1
  store i32 %136, i32* %5, align 4
  br label %31

137:                                              ; preds = %131, %31
  %138 = load i32, i32* %12, align 4
  %139 = icmp eq i32 %138, 0
  br i1 %139, label %140, label %143

140:                                              ; preds = %137
  %141 = getelementptr inbounds [256 x i8], [256 x i8]* %2, i64 0, i64 0
  %142 = call i32 (i8*, ...) @printf(i8* getelementptr inbounds ([3 x i8], [3 x i8]* @.str.1, i64 0, i64 0), i8* %141)
  br label %143

143:                                              ; preds = %140, %137
  ret i32 0
}

; Function Attrs: argmemonly nounwind willreturn
declare void @llvm.memset.p0i8.i64(i8* nocapture writeonly, i8, i64, i1 immarg) #1

declare dso_local i32 @gets(...) #2

; Function Attrs: nounwind readonly
declare dso_local i64 @strlen(i8*) #3

declare dso_local i32 @printf(i8*, ...) #2


!llvm.module.flags = !{!0}
!llvm.ident = !{!1}

!0 = !{i32 1, !"wchar_size", i32 4}
!1 = !{!"clang version 10.0.0-4ubuntu1 "}
